; Function Attrs: mustprogress uwtable
define hidden i32 @mbedtls_md_hmac_update(ptr noundef readonly captures(address_is_null) %0, ptr noundef %1, i64 noundef %2) local_unnamed_addr #5 {
  %4 = icmp eq ptr %0, null
  br i1 %4, label %mbedtls_md_update.exit, label %5

5:                                                ; preds = %3
  %6 = load ptr, ptr %0, align 8, !tbaa !3
  %7 = icmp eq ptr %6, null
  br i1 %7, label %mbedtls_md_update.exit, label %8

8:                                                ; preds = %5
  %9 = getelementptr inbounds nuw i8, ptr %0, i64 16
  %10 = load ptr, ptr %9, align 8, !tbaa !14
  %11 = icmp eq ptr %10, null
  br i1 %11, label %mbedtls_md_update.exit, label %12

12:                                               ; preds = %8
  %13 = getelementptr inbounds nuw i8, ptr %6, i64 8
  %14 = load i32, ptr %13, align 8, !tbaa !10
  switch i32 %14, label %mbedtls_md_update.exit [
    i32 2, label %15
    i32 3, label %19
    i32 4, label %23
  ]

15:                                               ; preds = %12
  %16 = getelementptr inbounds nuw i8, ptr %0, i64 8
  %17 = load ptr, ptr %16, align 8, !tbaa !9
  %18 = tail call i32 @mbedtls_sha1_update(ptr noundef %17, ptr noundef %1, i64 noundef %2)
  br label %mbedtls_md_update.exit

19:                                               ; preds = %12
  %20 = getelementptr inbounds nuw i8, ptr %0, i64 8
  %21 = load ptr, ptr %20, align 8, !tbaa !9
  %22 = tail call i32 @mbedtls_sha256_update(ptr noundef %21, ptr noundef %1, i64 noundef %2)
  br label %mbedtls_md_update.exit

23:                                               ; preds = %12
  %24 = getelementptr inbounds nuw i8, ptr %0, i64 8
  %25 = load ptr, ptr %24, align 8, !tbaa !9
  %26 = tail call i32 @mbedtls_sha256_update(ptr noundef %25, ptr noundef %1, i64 noundef %2)
  br label %mbedtls_md_update.exit

mbedtls_md_update.exit:                           ; preds = %23, %19, %15, %12, %3, %5, %8
  %.0 = phi i32 [ -20736, %8 ], [ -20736, %5 ], [ -20736, %3 ], [ %26, %23 ], [ %22, %19 ], [ %18, %15 ], [ -20736, %12 ]
  ret i32 %.0
}